
intrinsic_sse_A.o:     file format elf64-x86-64


Disassembly of section .text:

0000000000000000 <print_results>:
#include <stdio.h>
#include <xmmintrin.h>

void print_results(const char *title, __v4sf * x, __v4sf * y, __v4sf * z)
{
   0:	f3 0f 1e fa          	endbr64 
   4:	55                   	push   rbp
   5:	48 89 e5             	mov    rbp,rsp
   8:	48 83 ec 30          	sub    rsp,0x30
   c:	48 89 7d e8          	mov    QWORD PTR [rbp-0x18],rdi
  10:	48 89 75 e0          	mov    QWORD PTR [rbp-0x20],rsi
  14:	48 89 55 d8          	mov    QWORD PTR [rbp-0x28],rdx
  18:	48 89 4d d0          	mov    QWORD PTR [rbp-0x30],rcx
    int i;

    puts(title);
  1c:	48 8b 45 e8          	mov    rax,QWORD PTR [rbp-0x18]
  20:	48 89 c7             	mov    rdi,rax
  23:	e8 00 00 00 00       	call   28 <print_results+0x28>
    for (i = 0; i < sizeof(*x) / sizeof(float); i++) {
  28:	c7 45 fc 00 00 00 00 	mov    DWORD PTR [rbp-0x4],0x0
  2f:	eb 53                	jmp    84 <print_results+0x84>
        printf("%2d  %2.0f  %2.0f  %2.0f\n", i, (*x)[i], (*y)[i], (*z)[i]);
  31:	48 8b 45 d0          	mov    rax,QWORD PTR [rbp-0x30]
  35:	8b 55 fc             	mov    edx,DWORD PTR [rbp-0x4]
  38:	48 63 d2             	movsxd rdx,edx
  3b:	f3 0f 10 04 90       	movss  xmm0,DWORD PTR [rax+rdx*4]
  40:	f3 0f 5a d0          	cvtss2sd xmm2,xmm0
  44:	48 8b 45 d8          	mov    rax,QWORD PTR [rbp-0x28]
  48:	8b 55 fc             	mov    edx,DWORD PTR [rbp-0x4]
  4b:	48 63 d2             	movsxd rdx,edx
  4e:	f3 0f 10 04 90       	movss  xmm0,DWORD PTR [rax+rdx*4]
  53:	f3 0f 5a c8          	cvtss2sd xmm1,xmm0
  57:	48 8b 45 e0          	mov    rax,QWORD PTR [rbp-0x20]
  5b:	8b 55 fc             	mov    edx,DWORD PTR [rbp-0x4]
  5e:	48 63 d2             	movsxd rdx,edx
  61:	f3 0f 10 04 90       	movss  xmm0,DWORD PTR [rax+rdx*4]
  66:	f3 0f 5a c0          	cvtss2sd xmm0,xmm0
  6a:	8b 45 fc             	mov    eax,DWORD PTR [rbp-0x4]
  6d:	89 c6                	mov    esi,eax
  6f:	48 8d 3d 00 00 00 00 	lea    rdi,[rip+0x0]        # 76 <print_results+0x76>
  76:	b8 03 00 00 00       	mov    eax,0x3
  7b:	e8 00 00 00 00       	call   80 <print_results+0x80>
    for (i = 0; i < sizeof(*x) / sizeof(float); i++) {
  80:	83 45 fc 01          	add    DWORD PTR [rbp-0x4],0x1
  84:	8b 45 fc             	mov    eax,DWORD PTR [rbp-0x4]
  87:	83 f8 03             	cmp    eax,0x3
  8a:	76 a5                	jbe    31 <print_results+0x31>
    }

    putchar('\n');
  8c:	bf 0a 00 00 00       	mov    edi,0xa
  91:	e8 00 00 00 00       	call   96 <print_results+0x96>
}
  96:	90                   	nop
  97:	c9                   	leave  
  98:	c3                   	ret    

0000000000000099 <main>:

int main(void)
{
  99:	f3 0f 1e fa          	endbr64 
  9d:	55                   	push   rbp
  9e:	48 89 e5             	mov    rbp,rsp
  a1:	48 83 ec 40          	sub    rsp,0x40
  a5:	64 48 8b 04 25 28 00 	mov    rax,QWORD PTR fs:0x28
  ac:	00 00 
  ae:	48 89 45 f8          	mov    QWORD PTR [rbp-0x8],rax
  b2:	31 c0                	xor    eax,eax
    __v4sf x = { 1, 2, 3, 4 };
  b4:	0f 28 05 00 00 00 00 	movaps xmm0,XMMWORD PTR [rip+0x0]        # bb <main+0x22>
  bb:	0f 29 45 c0          	movaps XMMWORD PTR [rbp-0x40],xmm0
    __v4sf y = { 6, 7, 8, 9 };
  bf:	0f 28 05 00 00 00 00 	movaps xmm0,XMMWORD PTR [rip+0x0]        # c6 <main+0x2d>
  c6:	0f 29 45 d0          	movaps XMMWORD PTR [rbp-0x30],xmm0
    /* | x3     | x2     | x1     | x0     | */
    /* | y2     | y2     | y1     | y0     | */
    /* | y3..y0 | y3..y0 | x3..x0 | x3..x0 | */
    /* ------------------------------------- */

    z = __builtin_ia32_shufps(x, y, 0);
  ca:	0f 28 4d d0          	movaps xmm1,XMMWORD PTR [rbp-0x30]
  ce:	0f 28 45 c0          	movaps xmm0,XMMWORD PTR [rbp-0x40]
  d2:	0f c6 c1 00          	shufps xmm0,xmm1,0x0
  d6:	0f 29 45 e0          	movaps XMMWORD PTR [rbp-0x20],xmm0
    print_results(" #   x   y   z", &x, &y, &z);
  da:	48 8d 4d e0          	lea    rcx,[rbp-0x20]
  de:	48 8d 55 d0          	lea    rdx,[rbp-0x30]
  e2:	48 8d 45 c0          	lea    rax,[rbp-0x40]
  e6:	48 89 c6             	mov    rsi,rax
  e9:	48 8d 3d 00 00 00 00 	lea    rdi,[rip+0x0]        # f0 <main+0x57>
  f0:	e8 00 00 00 00       	call   f5 <main+0x5c>

    z = __builtin_ia32_shufps(x, y, 0b11110000);
  f5:	0f 28 4d d0          	movaps xmm1,XMMWORD PTR [rbp-0x30]
  f9:	0f 28 45 c0          	movaps xmm0,XMMWORD PTR [rbp-0x40]
  fd:	0f c6 c1 f0          	shufps xmm0,xmm1,0xf0
 101:	0f 29 45 e0          	movaps XMMWORD PTR [rbp-0x20],xmm0
    print_results(" #   x   y   z", &x, &y, &z);
 105:	48 8d 4d e0          	lea    rcx,[rbp-0x20]
 109:	48 8d 55 d0          	lea    rdx,[rbp-0x30]
 10d:	48 8d 45 c0          	lea    rax,[rbp-0x40]
 111:	48 89 c6             	mov    rsi,rax
 114:	48 8d 3d 00 00 00 00 	lea    rdi,[rip+0x0]        # 11b <main+0x82>
 11b:	e8 00 00 00 00       	call   120 <main+0x87>

    z = __builtin_ia32_shufps(x, y, 0b10100101);
 120:	0f 28 4d d0          	movaps xmm1,XMMWORD PTR [rbp-0x30]
 124:	0f 28 45 c0          	movaps xmm0,XMMWORD PTR [rbp-0x40]
 128:	0f c6 c1 a5          	shufps xmm0,xmm1,0xa5
 12c:	0f 29 45 e0          	movaps XMMWORD PTR [rbp-0x20],xmm0
    print_results(" #   x   y   z", &x, &y, &z);
 130:	48 8d 4d e0          	lea    rcx,[rbp-0x20]
 134:	48 8d 55 d0          	lea    rdx,[rbp-0x30]
 138:	48 8d 45 c0          	lea    rax,[rbp-0x40]
 13c:	48 89 c6             	mov    rsi,rax
 13f:	48 8d 3d 00 00 00 00 	lea    rdi,[rip+0x0]        # 146 <main+0xad>
 146:	e8 00 00 00 00       	call   14b <main+0xb2>
 14b:	b8 00 00 00 00       	mov    eax,0x0
}
 150:	48 8b 75 f8          	mov    rsi,QWORD PTR [rbp-0x8]
 154:	64 48 33 34 25 28 00 	xor    rsi,QWORD PTR fs:0x28
 15b:	00 00 
 15d:	74 05                	je     164 <main+0xcb>
 15f:	e8 00 00 00 00       	call   164 <main+0xcb>
 164:	c9                   	leave  
 165:	c3                   	ret    
